target datalayout = "e-m:e-p270:32:32-p271:32:32-p272:64:64-i64:64-i128:128-f80:128-n8:16:32:64-S128"
target triple = "x86_64-pc-linux-gnu"

%struct.poly_st = type { [256 x i32] }

; Function Attrs: inlinehint nounwind uwtable
define internal i32 @value_barrier_32(i32 noundef %0) #3 {
  %2 = alloca i32, align 4
  %3 = alloca i32, align 4
  store i32 %0, ptr %2, align 4, !tbaa !14
  call void @llvm.lifetime.start.p0(i64 4, ptr %3) #6
  %4 = load i32, ptr %2, align 4, !tbaa !14
  %5 = call i32 asm "", "=r,0,~{dirflag},~{fpsr},~{flags}"(i32 %4) #7, !srcloc !43
  store i32 %5, ptr %3, align 4, !tbaa !14
  %6 = load i32, ptr %3, align 4, !tbaa !14
  call void @llvm.lifetime.end.p0(i64 4, ptr %3) #6
  ret i32 %6
}

; Function Attrs: inlinehint nounwind uwtable
define internal i32 @constant_time_msb_32(i32 noundef %0) #3 {
  %2 = alloca i32, align 4
  store i32 %0, ptr %2, align 4, !tbaa !14
  %3 = load i32, ptr %2, align 4, !tbaa !14
  %4 = lshr i32 %3, 31
  %5 = sub i32 0, %4
  ret i32 %5
}

; Function Attrs: inlinehint nounwind uwtable
define internal i32 @constant_time_select_32(i32 noundef %0, i32 noundef %1, i32 noundef %2) #3 {
  %4 = alloca i32, align 4
  %5 = alloca i32, align 4
  %6 = alloca i32, align 4
  store i32 %0, ptr %4, align 4, !tbaa !14
  store i32 %1, ptr %5, align 4, !tbaa !14
  store i32 %2, ptr %6, align 4, !tbaa !14
  %7 = load i32, ptr %4, align 4, !tbaa !14
  %8 = call i32 @value_barrier_32(i32 noundef %7)
  %9 = load i32, ptr %5, align 4, !tbaa !14
  %10 = and i32 %8, %9
  %11 = load i32, ptr %4, align 4, !tbaa !14
  %12 = xor i32 %11, -1
  %13 = call i32 @value_barrier_32(i32 noundef %12)
  %14 = load i32, ptr %6, align 4, !tbaa !14
  %15 = and i32 %13, %14
  %16 = or i32 %10, %15
  ret i32 %16
}

; Function Attrs: inlinehint nounwind uwtable
define internal i32 @constant_time_lt_32(i32 noundef %0, i32 noundef %1) #3 {
  %3 = alloca i32, align 4
  %4 = alloca i32, align 4
  store i32 %0, ptr %3, align 4, !tbaa !14
  store i32 %1, ptr %4, align 4, !tbaa !14
  %5 = load i32, ptr %3, align 4, !tbaa !14
  %6 = load i32, ptr %3, align 4, !tbaa !14
  %7 = load i32, ptr %4, align 4, !tbaa !14
  %8 = xor i32 %6, %7
  %9 = load i32, ptr %3, align 4, !tbaa !14
  %10 = load i32, ptr %4, align 4, !tbaa !14
  %11 = sub i32 %9, %10
  %12 = load i32, ptr %4, align 4, !tbaa !14
  %13 = xor i32 %11, %12
  %14 = or i32 %8, %13
  %15 = xor i32 %5, %14
  %16 = call i32 @constant_time_msb_32(i32 noundef %15)
  ret i32 %16
}

; Function Attrs: inlinehint nounwind uwtable
define internal i32 @reduce_once(i32 noundef %0) #3 {
  %2 = alloca i32, align 4
  store i32 %0, ptr %2, align 4, !tbaa !14
  %3 = load i32, ptr %2, align 4, !tbaa !14
  %4 = call i32 @constant_time_lt_32(i32 noundef %3, i32 noundef 8380417)
  %5 = load i32, ptr %2, align 4, !tbaa !14
  %6 = load i32, ptr %2, align 4, !tbaa !14
  %7 = sub i32 %6, 8380417
  %8 = call i32 @constant_time_select_32(i32 noundef %4, i32 noundef %5, i32 noundef %7)
  ret i32 %8
}

; Function Attrs: inlinehint nounwind uwtable
define internal i64 @__uint64_identity(i64 noundef %0) #3 {
  %2 = alloca i64, align 8
  store i64 %0, ptr %2, align 8, !tbaa !21
  %3 = load i64, ptr %2, align 8, !tbaa !21
  ret i64 %3
}

; Function Attrs: inlinehint nounwind uwtable
define internal i32 @mod_sub(i32 noundef %0, i32 noundef %1) #3 {
  %3 = alloca i32, align 4
  %4 = alloca i32, align 4
  store i32 %0, ptr %3, align 4, !tbaa !14
  store i32 %1, ptr %4, align 4, !tbaa !14
  %5 = load i32, ptr %3, align 4, !tbaa !14
  %6 = add i32 8380417, %5
  %7 = load i32, ptr %4, align 4, !tbaa !14
  %8 = sub i32 %6, %7
  %9 = call i32 @reduce_once(i32 noundef %8)
  ret i32 %9
}

; Function Attrs: inlinehint nounwind uwtable
define internal void @poly_zero(ptr noundef %0) #3 {
  %2 = alloca ptr, align 8
  store ptr %0, ptr %2, align 8, !tbaa !20
  %3 = load ptr, ptr %2, align 8, !tbaa !20
  %4 = getelementptr inbounds nuw %struct.poly_st, ptr %3, i32 0, i32 0
  %5 = getelementptr inbounds [256 x i32], ptr %4, i64 0, i64 0
  call void @llvm.memset.p0.i64(ptr align 4 %5, i8 0, i64 1024, i1 false)
  ret void
}

; Function Attrs: inlinehint nounwind uwtable
define internal ptr @OPENSSL_load_u64_le(ptr noundef %0, ptr noundef %1) #3 {
  %3 = alloca ptr, align 8
  %4 = alloca ptr, align 8
  %5 = alloca i64, align 8
  store ptr %0, ptr %3, align 8, !tbaa !41
  store ptr %1, ptr %4, align 8, !tbaa !10
  call void @llvm.lifetime.start.p0(i64 8, ptr %5) #6
  %6 = load ptr, ptr %4, align 8, !tbaa !10
  call void @llvm.memcpy.p0.p0.i64(ptr align 8 %5, ptr align 1 %6, i64 8, i1 false)
  %7 = load i64, ptr %5, align 8, !tbaa !21
  %8 = call i64 @__uint64_identity(i64 noundef %7)
  %9 = load ptr, ptr %3, align 8, !tbaa !41
  store i64 %8, ptr %9, align 8, !tbaa !21
  %10 = load ptr, ptr %4, align 8, !tbaa !10
  %11 = getelementptr inbounds i8, ptr %10, i64 8
  call void @llvm.lifetime.end.p0(i64 8, ptr %5) #6
  ret ptr %11
}

; Function Attrs: inlinehint nounwind uwtable
define internal i32 @shake_xof(ptr noundef %0, ptr noundef %1, ptr noundef %2, i64 noundef %3, ptr noundef %4, i64 noundef %5) #3 {
  %7 = alloca ptr, align 8
  %8 = alloca ptr, align 8
  %9 = alloca ptr, align 8
  %10 = alloca i64, align 8
  %11 = alloca ptr, align 8
  %12 = alloca i64, align 8
  store ptr %0, ptr %7, align 8, !tbaa !3
  store ptr %1, ptr %8, align 8, !tbaa !8
  store ptr %2, ptr %9, align 8, !tbaa !10
  store i64 %3, ptr %10, align 8, !tbaa !21
  store ptr %4, ptr %11, align 8, !tbaa !10
  store i64 %5, ptr %12, align 8, !tbaa !21
  %13 = load ptr, ptr %7, align 8, !tbaa !3
  %14 = load ptr, ptr %8, align 8, !tbaa !8
  %15 = call i32 @EVP_DigestInit_ex2(ptr noundef %13, ptr noundef %14, ptr noundef null)
  %16 = icmp eq i32 %15, 1
  br i1 %16, label %17, label %29

17:                                               ; preds = %6
  %18 = load ptr, ptr %7, align 8, !tbaa !3
  %19 = load ptr, ptr %9, align 8, !tbaa !10
  %20 = load i64, ptr %10, align 8, !tbaa !21
  %21 = call i32 @EVP_DigestUpdate(ptr noundef %18, ptr noundef %19, i64 noundef %20)
  %22 = icmp eq i32 %21, 1
  br i1 %22, label %23, label %29

23:                                               ; preds = %17
  %24 = load ptr, ptr %7, align 8, !tbaa !3
  %25 = load ptr, ptr %11, align 8, !tbaa !10
  %26 = load i64, ptr %12, align 8, !tbaa !21
  %27 = call i32 @EVP_DigestSqueeze(ptr noundef %24, ptr noundef %25, i64 noundef %26)
  %28 = icmp eq i32 %27, 1
  br label %29

29:                                               ; preds = %23, %17, %6
  %30 = phi i1 [ false, %17 ], [ false, %6 ], [ %28, %23 ]
  %31 = zext i1 %30 to i32
  ret i32 %31
}

; Function Attrs: nounwind uwtable
define i32 @ossl_ml_dsa_poly_sample_in_ball(ptr noundef %0, ptr noundef %1, i32 noundef %2, ptr noundef %3, ptr noundef %4, i32 noundef %5) #0 {
  %7 = alloca i32, align 4
  %8 = alloca ptr, align 8
  %9 = alloca ptr, align 8
  %10 = alloca i32, align 4
  %11 = alloca ptr, align 8
  %12 = alloca ptr, align 8
  %13 = alloca i32, align 4
  %14 = alloca [136 x i8], align 16
  %15 = alloca i64, align 8
  %16 = alloca i32, align 4
  %17 = alloca i64, align 8
  %18 = alloca i32, align 4
  %19 = alloca i64, align 8
  store ptr %0, ptr %8, align 8, !tbaa !20
  store ptr %1, ptr %9, align 8, !tbaa !10
  store i32 %2, ptr %10, align 4, !tbaa !14
  store ptr %3, ptr %11, align 8, !tbaa !3
  store ptr %4, ptr %12, align 8, !tbaa !8
  store i32 %5, ptr %13, align 4, !tbaa !14
  call void @llvm.lifetime.start.p0(i64 136, ptr %14) #6
  call void @llvm.lifetime.start.p0(i64 8, ptr %15) #6
  call void @llvm.lifetime.start.p0(i64 4, ptr %16) #6
  store i32 8, ptr %16, align 4, !tbaa !14
  call void @llvm.lifetime.start.p0(i64 8, ptr %17) #6
  %20 = load ptr, ptr %11, align 8, !tbaa !3
  %21 = load ptr, ptr %12, align 8, !tbaa !8
  %22 = load ptr, ptr %9, align 8, !tbaa !10
  %23 = load i32, ptr %10, align 4, !tbaa !14
  %24 = sext i32 %23 to i64
  %25 = getelementptr inbounds [136 x i8], ptr %14, i64 0, i64 0
  %26 = call i32 @shake_xof(ptr noundef %20, ptr noundef %21, ptr noundef %22, i64 noundef %24, ptr noundef %25, i64 noundef 136)
  %27 = icmp ne i32 %26, 0
  br i1 %27, label %29, label %28

28:                                               ; preds = %6
  store i32 0, ptr %7, align 4
  store i32 1, ptr %18, align 4
  br label %91

29:                                               ; preds = %6
  %30 = getelementptr inbounds [136 x i8], ptr %14, i64 0, i64 0
  %31 = call ptr @OPENSSL_load_u64_le(ptr noundef %15, ptr noundef %30)
  %32 = load ptr, ptr %8, align 8, !tbaa !20
  call void @poly_zero(ptr noundef %32)
  %33 = load i32, ptr %13, align 4, !tbaa !14
  %34 = sub i32 256, %33
  %35 = zext i32 %34 to i64
  store i64 %35, ptr %17, align 8, !tbaa !21
  br label %36

36:                                               ; preds = %87, %29
  %37 = load i64, ptr %17, align 8, !tbaa !21
  %38 = icmp ult i64 %37, 256
  br i1 %38, label %39, label %90

39:                                               ; preds = %36
  call void @llvm.lifetime.start.p0(i64 8, ptr %19) #6
  br label %40

40:                                               ; preds = %62, %39
  %41 = load i32, ptr %16, align 4, !tbaa !14
  %42 = sext i32 %41 to i64
  %43 = icmp eq i64 %42, 136
  br i1 %43, label %44, label %51

44:                                               ; preds = %40
  %45 = load ptr, ptr %11, align 8, !tbaa !3
  %46 = getelementptr inbounds [136 x i8], ptr %14, i64 0, i64 0
  %47 = call i32 @EVP_DigestSqueeze(ptr noundef %45, ptr noundef %46, i64 noundef 136)
  %48 = icmp ne i32 %47, 0
  br i1 %48, label %50, label %49

49:                                               ; preds = %44
  store i32 0, ptr %7, align 4
  store i32 1, ptr %18, align 4
  br label %84

50:                                               ; preds = %44
  store i32 0, ptr %16, align 4, !tbaa !14
  br label %51

51:                                               ; preds = %50, %40
  %52 = load i32, ptr %16, align 4, !tbaa !14
  %53 = add nsw i32 %52, 1
  store i32 %53, ptr %16, align 4, !tbaa !14
  %54 = sext i32 %52 to i64
  %55 = getelementptr inbounds [136 x i8], ptr %14, i64 0, i64 %54
  %56 = load i8, ptr %55, align 1, !tbaa !24
  %57 = zext i8 %56 to i64
  store i64 %57, ptr %19, align 8, !tbaa !21
  %58 = load i64, ptr %19, align 8, !tbaa !21
  %59 = load i64, ptr %17, align 8, !tbaa !21
  %60 = icmp ule i64 %58, %59
  br i1 %60, label %61, label %62

61:                                               ; preds = %51
  br label %63

62:                                               ; preds = %51
  br label %40

63:                                               ; preds = %61
  %64 = load ptr, ptr %8, align 8, !tbaa !20
  %65 = getelementptr inbounds nuw %struct.poly_st, ptr %64, i32 0, i32 0
  %66 = load i64, ptr %19, align 8, !tbaa !21
  %67 = getelementptr inbounds nuw [256 x i32], ptr %65, i64 0, i64 %66
  %68 = load i32, ptr %67, align 4, !tbaa !14
  %69 = load ptr, ptr %8, align 8, !tbaa !20
  %70 = getelementptr inbounds nuw %struct.poly_st, ptr %69, i32 0, i32 0
  %71 = load i64, ptr %17, align 8, !tbaa !21
  %72 = getelementptr inbounds nuw [256 x i32], ptr %70, i64 0, i64 %71
  store i32 %68, ptr %72, align 4, !tbaa !14
  %73 = load i64, ptr %15, align 8, !tbaa !21
  %74 = and i64 %73, 1
  %75 = mul i64 2, %74
  %76 = trunc i64 %75 to i32
  %77 = call i32 @mod_sub(i32 noundef 1, i32 noundef %76)
  %78 = load ptr, ptr %8, align 8, !tbaa !20
  %79 = getelementptr inbounds nuw %struct.poly_st, ptr %78, i32 0, i32 0
  %80 = load i64, ptr %19, align 8, !tbaa !21
  %81 = getelementptr inbounds nuw [256 x i32], ptr %79, i64 0, i64 %80
  store i32 %77, ptr %81, align 4, !tbaa !14
  %82 = load i64, ptr %15, align 8, !tbaa !21
  %83 = lshr i64 %82, 1
  store i64 %83, ptr %15, align 8, !tbaa !21
  store i32 0, ptr %18, align 4
  br label %84

84:                                               ; preds = %63, %49
  call void @llvm.lifetime.end.p0(i64 8, ptr %19) #6
  %85 = load i32, ptr %18, align 4
  switch i32 %85, label %91 [
    i32 0, label %86
  ]

86:                                               ; preds = %84
  br label %87

87:                                               ; preds = %86
  %88 = load i64, ptr %17, align 8, !tbaa !21
  %89 = add i64 %88, 1
  store i64 %89, ptr %17, align 8, !tbaa !21
  br label %36, !llvm.loop !40

90:                                               ; preds = %36
  store i32 1, ptr %7, align 4
  store i32 1, ptr %18, align 4
  br label %91

91:                                               ; preds = %90, %84, %28
  call void @llvm.lifetime.end.p0(i64 8, ptr %17) #6
  call void @llvm.lifetime.end.p0(i64 4, ptr %16) #6
  call void @llvm.lifetime.end.p0(i64 8, ptr %15) #6
  call void @llvm.lifetime.end.p0(i64 136, ptr %14) #6
  %92 = load i32, ptr %7, align 4
  ret i32 %92
}